target datalayout = "e-m:e-p270:32:32-p271:32:32-p272:64:64-i64:64-i128:128-f80:128-n8:16:32:64-S128"
target triple = "x86_64-pc-linux-gnu"

%struct.gmx_conect_t = type { i32, ptr }
%struct.gmx_conection_t = type { i32, i32 }

@.str.29 = private unnamed_addr constant [122 x i8] c"generated/home/dtcxzyw/WorkSpace/Projects/compilers/llvm-opt-benchmark/bench/gromacs/gromacs/src/gromacs/fileio/pdbio.cpp\00", align 1
@.str.41 = private unnamed_addr constant [11 x i8] c"gc->conect\00", align 1

; Function Attrs: inlinehint mustprogress uwtable
define internal void @_ZL15gmx_srenew_implI15gmx_conection_tEvPKcS2_iRPT_m(ptr noundef %0, ptr noundef %1, i32 noundef %2, ptr noundef nonnull align 8 dereferenceable(8) %3, i64 noundef %4) #5 {
  %6 = alloca ptr, align 8
  %7 = alloca ptr, align 8
  %8 = alloca i32, align 4
  %9 = alloca ptr, align 8
  %10 = alloca i64, align 8
  store ptr %0, ptr %6, align 8, !tbaa !8
  store ptr %1, ptr %7, align 8, !tbaa !8
  store i32 %2, ptr %8, align 4, !tbaa !21
  store ptr %3, ptr %9, align 8, !tbaa !139
  store i64 %4, ptr %10, align 8, !tbaa !85
  %11 = load ptr, ptr %6, align 8, !tbaa !8
  %12 = load ptr, ptr %7, align 8, !tbaa !8
  %13 = load i32, ptr %8, align 4, !tbaa !21
  %14 = load ptr, ptr %9, align 8, !tbaa !139
  %15 = load ptr, ptr %14, align 8, !tbaa !93
  %16 = load i64, ptr %10, align 8, !tbaa !85
  %17 = call noundef ptr @_Z12save_reallocPKcS0_iPvmm(ptr noundef %11, ptr noundef %12, i32 noundef %13, ptr noundef %15, i64 noundef %16, i64 noundef 8)
  %18 = load ptr, ptr %9, align 8, !tbaa !139
  store ptr %17, ptr %18, align 8, !tbaa !93
  ret void
}

; Function Attrs: mustprogress nounwind uwtable
define noundef zeroext i1 @_Z16gmx_conect_existP12gmx_conect_tii(ptr noundef %0, i32 noundef %1, i32 noundef %2) #1 {
  %4 = alloca i1, align 1
  %5 = alloca ptr, align 8
  %6 = alloca i32, align 4
  %7 = alloca i32, align 4
  %8 = alloca ptr, align 8
  %9 = alloca i32, align 4
  %10 = alloca i32, align 4
  store ptr %0, ptr %5, align 8, !tbaa !28
  store i32 %1, ptr %6, align 4, !tbaa !21
  store i32 %2, ptr %7, align 4, !tbaa !21
  call void @llvm.lifetime.start.p0(i64 8, ptr %8) #15
  %11 = load ptr, ptr %5, align 8, !tbaa !28
  store ptr %11, ptr %8, align 8, !tbaa !28
  call void @llvm.lifetime.start.p0(i64 4, ptr %9) #15
  store i32 0, ptr %9, align 4, !tbaa !21
  br label %12

12:                                               ; preds = %64, %3
  %13 = load i32, ptr %9, align 4, !tbaa !21
  %14 = load ptr, ptr %8, align 8, !tbaa !28
  %15 = getelementptr inbounds nuw %struct.gmx_conect_t, ptr %14, i32 0, i32 0
  %16 = load i32, ptr %15, align 8, !tbaa !67
  %17 = icmp slt i32 %13, %16
  br i1 %17, label %18, label %67

18:                                               ; preds = %12
  %19 = load ptr, ptr %8, align 8, !tbaa !28
  %20 = getelementptr inbounds nuw %struct.gmx_conect_t, ptr %19, i32 0, i32 1
  %21 = load ptr, ptr %20, align 8, !tbaa !69
  %22 = load i32, ptr %9, align 4, !tbaa !21
  %23 = sext i32 %22 to i64
  %24 = getelementptr inbounds %struct.gmx_conection_t, ptr %21, i64 %23
  %25 = getelementptr inbounds nuw %struct.gmx_conection_t, ptr %24, i32 0, i32 0
  %26 = load i32, ptr %25, align 4, !tbaa !70
  %27 = load i32, ptr %6, align 4, !tbaa !21
  %28 = icmp eq i32 %26, %27
  br i1 %28, label %29, label %40

29:                                               ; preds = %18
  %30 = load ptr, ptr %8, align 8, !tbaa !28
  %31 = getelementptr inbounds nuw %struct.gmx_conect_t, ptr %30, i32 0, i32 1
  %32 = load ptr, ptr %31, align 8, !tbaa !69
  %33 = load i32, ptr %9, align 4, !tbaa !21
  %34 = sext i32 %33 to i64
  %35 = getelementptr inbounds %struct.gmx_conection_t, ptr %32, i64 %34
  %36 = getelementptr inbounds nuw %struct.gmx_conection_t, ptr %35, i32 0, i32 1
  %37 = load i32, ptr %36, align 4, !tbaa !72
  %38 = load i32, ptr %7, align 4, !tbaa !21
  %39 = icmp eq i32 %37, %38
  br i1 %39, label %62, label %40

40:                                               ; preds = %29, %18
  %41 = load ptr, ptr %8, align 8, !tbaa !28
  %42 = getelementptr inbounds nuw %struct.gmx_conect_t, ptr %41, i32 0, i32 1
  %43 = load ptr, ptr %42, align 8, !tbaa !69
  %44 = load i32, ptr %9, align 4, !tbaa !21
  %45 = sext i32 %44 to i64
  %46 = getelementptr inbounds %struct.gmx_conection_t, ptr %43, i64 %45
  %47 = getelementptr inbounds nuw %struct.gmx_conection_t, ptr %46, i32 0, i32 1
  %48 = load i32, ptr %47, align 4, !tbaa !72
  %49 = load i32, ptr %6, align 4, !tbaa !21
  %50 = icmp eq i32 %48, %49
  br i1 %50, label %51, label %63

51:                                               ; preds = %40
  %52 = load ptr, ptr %8, align 8, !tbaa !28
  %53 = getelementptr inbounds nuw %struct.gmx_conect_t, ptr %52, i32 0, i32 1
  %54 = load ptr, ptr %53, align 8, !tbaa !69
  %55 = load i32, ptr %9, align 4, !tbaa !21
  %56 = sext i32 %55 to i64
  %57 = getelementptr inbounds %struct.gmx_conection_t, ptr %54, i64 %56
  %58 = getelementptr inbounds nuw %struct.gmx_conection_t, ptr %57, i32 0, i32 0
  %59 = load i32, ptr %58, align 4, !tbaa !70
  %60 = load i32, ptr %7, align 4, !tbaa !21
  %61 = icmp eq i32 %59, %60
  br i1 %61, label %62, label %63

62:                                               ; preds = %51, %29
  store i1 true, ptr %4, align 1
  store i32 1, ptr %10, align 4
  br label %68

63:                                               ; preds = %51, %40
  br label %64

64:                                               ; preds = %63
  %65 = load i32, ptr %9, align 4, !tbaa !21
  %66 = add nsw i32 %65, 1
  store i32 %66, ptr %9, align 4, !tbaa !21
  br label %12, !llvm.loop !138

67:                                               ; preds = %12
  store i1 false, ptr %4, align 1
  store i32 1, ptr %10, align 4
  br label %68

68:                                               ; preds = %67, %62
  call void @llvm.lifetime.end.p0(i64 4, ptr %9) #15
  call void @llvm.lifetime.end.p0(i64 8, ptr %8) #15
  %69 = load i1, ptr %4, align 1
  ret i1 %69
}

; Function Attrs: mustprogress uwtable
define void @_Z14gmx_conect_addP12gmx_conect_tii(ptr noundef %0, i32 noundef %1, i32 noundef %2) #0 {
  %4 = alloca ptr, align 8
  %5 = alloca i32, align 4
  %6 = alloca i32, align 4
  %7 = alloca ptr, align 8
  store ptr %0, ptr %4, align 8, !tbaa !28
  store i32 %1, ptr %5, align 4, !tbaa !21
  store i32 %2, ptr %6, align 4, !tbaa !21
  call void @llvm.lifetime.start.p0(i64 8, ptr %7) #15
  %8 = load ptr, ptr %4, align 8, !tbaa !28
  store ptr %8, ptr %7, align 8, !tbaa !28
  %9 = load ptr, ptr %4, align 8, !tbaa !28
  %10 = load i32, ptr %5, align 4, !tbaa !21
  %11 = load i32, ptr %6, align 4, !tbaa !21
  %12 = call noundef zeroext i1 @_Z16gmx_conect_existP12gmx_conect_tii(ptr noundef %9, i32 noundef %10, i32 noundef %11)
  br i1 %12, label %43, label %13

13:                                               ; preds = %3
  %14 = load ptr, ptr %7, align 8, !tbaa !28
  %15 = getelementptr inbounds nuw %struct.gmx_conect_t, ptr %14, i32 0, i32 1
  %16 = load ptr, ptr %7, align 8, !tbaa !28
  %17 = getelementptr inbounds nuw %struct.gmx_conect_t, ptr %16, i32 0, i32 0
  %18 = load i32, ptr %17, align 8, !tbaa !67
  %19 = add nsw i32 %18, 1
  store i32 %19, ptr %17, align 8, !tbaa !67
  %20 = sext i32 %19 to i64
  call void @_ZL15gmx_srenew_implI15gmx_conection_tEvPKcS2_iRPT_m(ptr noundef @.str.41, ptr noundef @.str.29, i32 noundef 873, ptr noundef nonnull align 8 dereferenceable(8) %15, i64 noundef %20)
  %21 = load i32, ptr %5, align 4, !tbaa !21
  %22 = load ptr, ptr %7, align 8, !tbaa !28
  %23 = getelementptr inbounds nuw %struct.gmx_conect_t, ptr %22, i32 0, i32 1
  %24 = load ptr, ptr %23, align 8, !tbaa !69
  %25 = load ptr, ptr %7, align 8, !tbaa !28
  %26 = getelementptr inbounds nuw %struct.gmx_conect_t, ptr %25, i32 0, i32 0
  %27 = load i32, ptr %26, align 8, !tbaa !67
  %28 = sub nsw i32 %27, 1
  %29 = sext i32 %28 to i64
  %30 = getelementptr inbounds %struct.gmx_conection_t, ptr %24, i64 %29
  %31 = getelementptr inbounds nuw %struct.gmx_conection_t, ptr %30, i32 0, i32 0
  store i32 %21, ptr %31, align 4, !tbaa !70
  %32 = load i32, ptr %6, align 4, !tbaa !21
  %33 = load ptr, ptr %7, align 8, !tbaa !28
  %34 = getelementptr inbounds nuw %struct.gmx_conect_t, ptr %33, i32 0, i32 1
  %35 = load ptr, ptr %34, align 8, !tbaa !69
  %36 = load ptr, ptr %7, align 8, !tbaa !28
  %37 = getelementptr inbounds nuw %struct.gmx_conect_t, ptr %36, i32 0, i32 0
  %38 = load i32, ptr %37, align 8, !tbaa !67
  %39 = sub nsw i32 %38, 1
  %40 = sext i32 %39 to i64
  %41 = getelementptr inbounds %struct.gmx_conection_t, ptr %35, i64 %40
  %42 = getelementptr inbounds nuw %struct.gmx_conection_t, ptr %41, i32 0, i32 1
  store i32 %32, ptr %42, align 4, !tbaa !72
  br label %43

43:                                               ; preds = %13, %3
  call void @llvm.lifetime.end.p0(i64 8, ptr %7) #15
  ret void
}