; Function Attrs: mustprogress uwtable
define void @_Z14gmx_conect_addP12gmx_conect_tii(ptr noundef captures(none) %0, i32 noundef %1, i32 noundef %2) local_unnamed_addr #1 {
  %4 = load i32, ptr %0, align 8, !tbaa !60
  %5 = icmp sgt i32 %4, 0
  %6 = getelementptr inbounds nuw i8, ptr %0, i64 8
  %7 = load ptr, ptr %6, align 8, !tbaa !78
  br i1 %5, label %.lr.ph.i, label %_Z16gmx_conect_existP12gmx_conect_tii.exit

.lr.ph.i:                                         ; preds = %3
  %wide.trip.count.i = zext nneg i32 %4 to i64
  br label %9

8:                                                ; preds = %._crit_edge23.i
  %indvars.iv.next.i = add nuw nsw i64 %indvars.iv.i, 1
  %exitcond.not.i = icmp eq i64 %indvars.iv.next.i, %wide.trip.count.i
  br i1 %exitcond.not.i, label %_Z16gmx_conect_existP12gmx_conect_tii.exit, label %9, !llvm.loop !77

9:                                                ; preds = %8, %.lr.ph.i
  %indvars.iv.i = phi i64 [ 0, %.lr.ph.i ], [ %indvars.iv.next.i, %8 ]
  %10 = getelementptr inbounds nuw %struct.gmx_conection_t, ptr %7, i64 %indvars.iv.i
  %11 = load i32, ptr %10, align 4, !tbaa !63
  %12 = icmp eq i32 %11, %1
  %13 = getelementptr inbounds nuw i8, ptr %10, i64 4
  %14 = load i32, ptr %13, align 4, !tbaa !65
  %15 = icmp eq i32 %14, %2
  %or.cond24.i = select i1 %12, i1 %15, i1 false
  br i1 %or.cond24.i, label %_Z16gmx_conect_existP12gmx_conect_tii.exit.thread, label %._crit_edge23.i

._crit_edge23.i:                                  ; preds = %9
  %16 = icmp eq i32 %14, %1
  %17 = icmp eq i32 %11, %2
  %or.cond.i = and i1 %17, %16
  br i1 %or.cond.i, label %_Z16gmx_conect_existP12gmx_conect_tii.exit.thread, label %8

_Z16gmx_conect_existP12gmx_conect_tii.exit:       ; preds = %8, %3
  %18 = getelementptr inbounds nuw i8, ptr %0, i64 8
  %19 = add nsw i32 %4, 1
  store i32 %19, ptr %0, align 8, !tbaa !60
  %20 = sext i32 %19 to i64
  %21 = tail call noundef ptr @_Z12save_reallocPKcS0_iPvmm(ptr noundef nonnull @.str.41, ptr noundef nonnull @.str.29, i32 noundef 873, ptr noundef %7, i64 noundef range(i64 -2147483647, 2147483648) %20, i64 noundef 8)
  store ptr %21, ptr %18, align 8, !tbaa !78
  %22 = load i32, ptr %0, align 8, !tbaa !60
  %23 = sext i32 %22 to i64
  %24 = getelementptr %struct.gmx_conection_t, ptr %21, i64 %23
  %25 = getelementptr i8, ptr %24, i64 -8
  store i32 %1, ptr %25, align 4, !tbaa !63
  %26 = getelementptr i8, ptr %24, i64 -4
  store i32 %2, ptr %26, align 4, !tbaa !65
  br label %_Z16gmx_conect_existP12gmx_conect_tii.exit.thread

_Z16gmx_conect_existP12gmx_conect_tii.exit.thread: ; preds = %9, %._crit_edge23.i, %_Z16gmx_conect_existP12gmx_conect_tii.exit
  ret void
}